; Function Attrs: mustprogress nounwind uwtable
define dso_local noundef ptr @_ZN4llvm20TLSVariableHoistPass14genBitCastInstERNS_8FunctionEPNS_14GlobalVariableE(ptr noundef nonnull align 8 dereferenceable(56) %0, ptr noundef nonnull readonly align 8 captures(none) dereferenceable(136) %1, ptr noundef %2) local_unnamed_addr #0 align 2 {
  %4 = alloca ptr, align 8
  %5 = alloca %"class.llvm::Twine", align 8
  %6 = getelementptr inbounds nuw i8, ptr %1, i64 80
  %7 = load ptr, ptr %6, align 8
  %8 = icmp eq ptr %7, null
  %9 = getelementptr inbounds i8, ptr %7, i64 -24
  %10 = select i1 %8, ptr null, ptr %9
  store ptr %10, ptr %4, align 8
  %11 = call { ptr, i64 } @_ZN4llvm20TLSVariableHoistPass13findInsertPosERNS_8FunctionEPNS_14GlobalVariableERPNS_10BasicBlockE(ptr noundef nonnull align 8 dereferenceable(56) %0, ptr nonnull align 8 poison, ptr noundef %2, ptr noundef nonnull align 8 dereferenceable(8) %4)
  %.fca.0.extract = extractvalue { ptr, i64 } %11, 0
  %.fca.1.extract = extractvalue { ptr, i64 } %11, 1
  %12 = getelementptr inbounds nuw i8, ptr %2, i64 8
  %13 = load ptr, ptr %12, align 8
  %14 = tail call noundef ptr @_ZN4llvm4UsernwEmj(i64 noundef 72, i32 noundef 1) #17
  %15 = getelementptr inbounds nuw i8, ptr %5, i64 32
  %16 = getelementptr inbounds nuw i8, ptr %5, i64 33
  store i8 1, ptr %16, align 1
  store ptr @.str.2, ptr %5, align 8
  store i8 3, ptr %15, align 8
  call void @_ZN4llvm11BitCastInstC1EPNS_5ValueEPNS_4TypeERKNS_5TwineENS_14InsertPositionE(ptr noundef nonnull align 8 dereferenceable(72) %14, ptr noundef nonnull %2, ptr noundef %13, ptr noundef nonnull align 8 dereferenceable(34) %5, ptr null, i64 0) #17
  %17 = load ptr, ptr %4, align 8
  %.sroa.27.8.insert.ext = and i64 %.fca.1.extract, 65535
  %18 = call { ptr, i64 } @_ZN4llvm11Instruction10insertIntoEPNS_10BasicBlockENS_21ilist_iterator_w_bitsINS_12ilist_detail12node_optionsIS0_Lb0ELb0EvLb1ES1_EELb0ELb0EEE(ptr noundef nonnull align 8 dereferenceable(72) %14, ptr noundef %17, ptr %.fca.0.extract, i64 %.sroa.27.8.insert.ext) #17
  ret ptr %14
}